target datalayout = "e-m:e-p270:32:32-p271:32:32-p272:64:64-i64:64-i128:128-f80:128-n8:16:32:64-S128"
target triple = "x86_64-pc-linux-gnu"

%struct.H5VL_optional_args_t = type { i32, ptr }
%union.H5VL_native_file_optional_args_t = type { %struct.H5VL_native_file_get_page_buffering_stats_t }
%struct.H5VL_native_file_get_page_buffering_stats_t = type { ptr, ptr, ptr, ptr, ptr }
%struct.H5CX_node_t = type { %struct.H5CX_t, ptr }
%struct.H5CX_t = type { i64, ptr, i64, ptr, i64, ptr, i64, ptr, i64, ptr, i64, ptr, i64, i32, i64, i8, ptr, i8, ptr, i8, i32, i8, [3 x double], i8, i64, i8, i32, i8, %struct.H5Z_cb_t, i8, ptr, i8, %struct.H5T_vlen_alloc_info_t, i8, %struct.H5T_conv_cb_t, i8, i32, i8, i8, i8, i32, i8, i8, i32, i8, i8, i32, i8, i32, i8, i64, i8, i8, i8, i8, i8, ptr, i8, ptr, i8, i32, i8, i32, i8, %struct.H5VL_connector_prop_t, i8, ptr, i8 }
%struct.H5Z_cb_t = type { ptr, ptr }
%struct.H5T_vlen_alloc_info_t = type { ptr, ptr, ptr, ptr }
%struct.H5T_conv_cb_t = type { ptr, ptr }
%struct.H5VL_connector_prop_t = type { ptr, ptr }
%struct.H5VL_native_file_set_libver_bounds_t = type { i32, i32 }

@H5_libinit_g = external global i8, align 1
@H5_libterm_g = external global i8, align 1
@.str = private unnamed_addr constant [103 x i8] c"generated/home/dtcxzyw/WorkSpace/Projects/compilers/llvm-opt-benchmark/bench/hdf5/hdf5/src/H5Fdeprec.c\00", align 1
@H5E_FUNC_g = external global i64, align 8
@H5E_CANTINIT_g = external global i64, align 8
@.str.1 = private unnamed_addr constant [30 x i8] c"library initialization failed\00", align 1
@H5F_init_g = external global i8, align 1
@.str.2 = private unnamed_addr constant [32 x i8] c"interface initialization failed\00", align 1
@H5E_CANTSET_g = external global i64, align 8
@.str.3 = private unnamed_addr constant [22 x i8] c"can't set API context\00", align 1
@H5E_BADVALUE_g = external global i64, align 8
@H5P_LST_DATASET_XFER_ID_g = external global i64, align 8
@H5E_FILE_g = external global i64, align 8
@__func__.H5Fset_latest_format = private unnamed_addr constant [21 x i8] c"H5Fset_latest_format\00", align 1
@.str.10 = private unnamed_addr constant [14 x i8] c"not a file ID\00", align 1
@.str.11 = private unnamed_addr constant [40 x i8] c"can't set collective metadata read info\00", align 1
@.str.12 = private unnamed_addr constant [33 x i8] c"can't set library version bounds\00", align 1

; Function Attrs: nounwind uwtable
define i32 @H5Fset_latest_format(i64 noundef %0, i1 noundef zeroext %1) #0 {
  %3 = alloca i64, align 8
  %4 = alloca i8, align 1
  %5 = alloca ptr, align 8
  %6 = alloca %struct.H5VL_optional_args_t, align 8
  %7 = alloca %union.H5VL_native_file_optional_args_t, align 8
  %8 = alloca i32, align 4
  %9 = alloca i32, align 4
  %10 = alloca %struct.H5CX_node_t, align 8
  %11 = alloca i8, align 1
  %12 = alloca i8, align 1
  store i64 %0, ptr %3, align 8, !tbaa !3
  %13 = zext i1 %1 to i8
  store i8 %13, ptr %4, align 1, !tbaa !14
  call void @llvm.lifetime.start.p0(i64 8, ptr %5) #6
  call void @llvm.lifetime.start.p0(i64 16, ptr %6) #6
  call void @llvm.lifetime.start.p0(i64 40, ptr %7) #6
  call void @llvm.lifetime.start.p0(i64 4, ptr %8) #6
  store i32 5, ptr %8, align 4, !tbaa !12
  call void @llvm.lifetime.start.p0(i64 4, ptr %9) #6
  store i32 0, ptr %9, align 4, !tbaa !12
  call void @llvm.lifetime.start.p0(i64 480, ptr %10) #6
  call void @llvm.memset.p0.i64(ptr align 8 %10, i8 0, i64 480, i1 false)
  call void @llvm.lifetime.start.p0(i64 1, ptr %11) #6
  store i8 0, ptr %11, align 1, !tbaa !14
  call void @llvm.lifetime.start.p0(i64 1, ptr %12) #6
  store i8 0, ptr %12, align 1, !tbaa !14
  br label %14

14:                                               ; preds = %2
  %15 = load i8, ptr @H5_libinit_g, align 1, !tbaa !14, !range !16, !noundef !17
  %16 = trunc i8 %15 to i1
  br i1 %16, label %21, label %17

17:                                               ; preds = %14
  %18 = load i8, ptr @H5_libterm_g, align 1, !tbaa !14, !range !16, !noundef !17
  %19 = trunc i8 %18 to i1
  %20 = xor i1 %19, true
  br label %21

21:                                               ; preds = %17, %14
  %22 = phi i1 [ false, %14 ], [ %20, %17 ]
  %23 = xor i1 %22, true
  %24 = xor i1 %23, true
  %25 = zext i1 %24 to i32
  %26 = sext i32 %25 to i64
  %27 = call i64 @llvm.expect.i64(i64 %26, i64 0)
  %28 = icmp ne i64 %27, 0
  br i1 %28, label %29, label %58

29:                                               ; preds = %21
  %30 = call i32 @H5_init_library()
  %31 = icmp slt i32 %30, 0
  %32 = xor i1 %31, true
  %33 = xor i1 %32, true
  %34 = zext i1 %33 to i32
  %35 = sext i32 %34 to i64
  %36 = call i64 @llvm.expect.i64(i64 %35, i64 0)
  %37 = icmp ne i64 %36, 0
  br i1 %37, label %38, label %57

38:                                               ; preds = %29
  br label %39

39:                                               ; preds = %38
  br label %40

40:                                               ; preds = %39
  br label %41

41:                                               ; preds = %40
  %42 = load i64, ptr @H5E_FUNC_g, align 8, !tbaa !3
  %43 = load i64, ptr @H5E_CANTINIT_g, align 8, !tbaa !3
  %44 = call i32 (ptr, ptr, i32, i64, i64, ptr, ...) @H5E_printf_stack(ptr noundef @.str, ptr noundef @__func__.H5Fset_latest_format, i32 noundef 214, i64 noundef %42, i64 noundef %43, ptr noundef @.str.1)
  br label %45

45:                                               ; preds = %41
  br label %46

46:                                               ; preds = %45
  store i8 1, ptr %12, align 1, !tbaa !14
  %47 = load i8, ptr %12, align 1, !tbaa !14, !range !16, !noundef !17
  %48 = trunc i8 %47 to i1
  %49 = zext i1 %48 to i8
  store i8 %49, ptr %12, align 1, !tbaa !14
  br label %50

50:                                               ; preds = %46
  br label %51

51:                                               ; preds = %50
  br label %52

52:                                               ; preds = %51
  store i32 -1, ptr %9, align 4, !tbaa !12
  br label %211

53:                                               ; No predecessors!
  br label %54

54:                                               ; preds = %53
  br label %55

55:                                               ; preds = %54
  br label %56

56:                                               ; preds = %55
  br label %57

57:                                               ; preds = %56, %29
  br label %58

58:                                               ; preds = %57, %21
  %59 = load i8, ptr @H5F_init_g, align 1, !tbaa !14, !range !16, !noundef !17
  %60 = trunc i8 %59 to i1
  br i1 %60, label %65, label %61

61:                                               ; preds = %58
  %62 = load i8, ptr @H5_libterm_g, align 1, !tbaa !14, !range !16, !noundef !17
  %63 = trunc i8 %62 to i1
  %64 = xor i1 %63, true
  br label %65

65:                                               ; preds = %61, %58
  %66 = phi i1 [ false, %58 ], [ %64, %61 ]
  %67 = xor i1 %66, true
  %68 = xor i1 %67, true
  %69 = zext i1 %68 to i32
  %70 = sext i32 %69 to i64
  %71 = call i64 @llvm.expect.i64(i64 %70, i64 0)
  %72 = icmp ne i64 %71, 0
  br i1 %72, label %73, label %96

73:                                               ; preds = %65
  store i8 1, ptr @H5F_init_g, align 1, !tbaa !14
  %74 = call i32 @H5F__init_package()
  %75 = icmp slt i32 %74, 0
  br i1 %75, label %76, label %95

76:                                               ; preds = %73
  store i8 0, ptr @H5F_init_g, align 1, !tbaa !14
  br label %77

77:                                               ; preds = %76
  br label %78

78:                                               ; preds = %77
  br label %79

79:                                               ; preds = %78
  %80 = load i64, ptr @H5E_FUNC_g, align 8, !tbaa !3
  %81 = load i64, ptr @H5E_CANTINIT_g, align 8, !tbaa !3
  %82 = call i32 (ptr, ptr, i32, i64, i64, ptr, ...) @H5E_printf_stack(ptr noundef @.str, ptr noundef @__func__.H5Fset_latest_format, i32 noundef 214, i64 noundef %80, i64 noundef %81, ptr noundef @.str.2)
  br label %83

83:                                               ; preds = %79
  br label %84

84:                                               ; preds = %83
  store i8 1, ptr %12, align 1, !tbaa !14
  %85 = load i8, ptr %12, align 1, !tbaa !14, !range !16, !noundef !17
  %86 = trunc i8 %85 to i1
  %87 = zext i1 %86 to i8
  store i8 %87, ptr %12, align 1, !tbaa !14
  br label %88

88:                                               ; preds = %84
  br label %89

89:                                               ; preds = %88
  br label %90

90:                                               ; preds = %89
  store i32 -1, ptr %9, align 4, !tbaa !12
  br label %211

91:                                               ; No predecessors!
  br label %92

92:                                               ; preds = %91
  br label %93

93:                                               ; preds = %92
  br label %94

94:                                               ; preds = %93
  br label %95

95:                                               ; preds = %94, %73
  br label %96

96:                                               ; preds = %95, %65
  br label %97

97:                                               ; preds = %96
  br label %98

98:                                               ; preds = %97
  br label %99

99:                                               ; preds = %98
  %100 = call i32 @H5CX_push(ptr noundef %10)
  %101 = icmp slt i32 %100, 0
  %102 = xor i1 %101, true
  %103 = xor i1 %102, true
  %104 = zext i1 %103 to i32
  %105 = sext i32 %104 to i64
  %106 = call i64 @llvm.expect.i64(i64 %105, i64 0)
  %107 = icmp ne i64 %106, 0
  br i1 %107, label %108, label %127

108:                                              ; preds = %99
  br label %109

109:                                              ; preds = %108
  br label %110

110:                                              ; preds = %109
  br label %111

111:                                              ; preds = %110
  %112 = load i64, ptr @H5E_FUNC_g, align 8, !tbaa !3
  %113 = load i64, ptr @H5E_CANTSET_g, align 8, !tbaa !3
  %114 = call i32 (ptr, ptr, i32, i64, i64, ptr, ...) @H5E_printf_stack(ptr noundef @.str, ptr noundef @__func__.H5Fset_latest_format, i32 noundef 214, i64 noundef %112, i64 noundef %113, ptr noundef @.str.3)
  br label %115

115:                                              ; preds = %111
  br label %116

116:                                              ; preds = %115
  store i8 1, ptr %12, align 1, !tbaa !14
  %117 = load i8, ptr %12, align 1, !tbaa !14, !range !16, !noundef !17
  %118 = trunc i8 %117 to i1
  %119 = zext i1 %118 to i8
  store i8 %119, ptr %12, align 1, !tbaa !14
  br label %120

120:                                              ; preds = %116
  br label %121

121:                                              ; preds = %120
  br label %122

122:                                              ; preds = %121
  store i32 -1, ptr %9, align 4, !tbaa !12
  br label %211

123:                                              ; No predecessors!
  br label %124

124:                                              ; preds = %123
  br label %125

125:                                              ; preds = %124
  br label %126

126:                                              ; preds = %125
  br label %128

127:                                              ; preds = %99
  store i8 1, ptr %11, align 1, !tbaa !14
  br label %128

128:                                              ; preds = %127, %126
  br label %129

129:                                              ; preds = %128
  br label %130

130:                                              ; preds = %129
  %131 = call i32 @H5E_clear_stack()
  %132 = load i64, ptr %3, align 8, !tbaa !3
  %133 = call ptr @H5VL_vol_object_verify(i64 noundef %132, i32 noundef 1)
  store ptr %133, ptr %5, align 8, !tbaa !10
  %134 = icmp eq ptr null, %133
  br i1 %134, label %135, label %154

135:                                              ; preds = %130
  br label %136

136:                                              ; preds = %135
  br label %137

137:                                              ; preds = %136
  br label %138

138:                                              ; preds = %137
  %139 = load i64, ptr @H5E_FILE_g, align 8, !tbaa !3
  %140 = load i64, ptr @H5E_BADVALUE_g, align 8, !tbaa !3
  %141 = call i32 (ptr, ptr, i32, i64, i64, ptr, ...) @H5E_printf_stack(ptr noundef @.str, ptr noundef @__func__.H5Fset_latest_format, i32 noundef 218, i64 noundef %139, i64 noundef %140, ptr noundef @.str.10)
  br label %142

142:                                              ; preds = %138
  br label %143

143:                                              ; preds = %142
  store i8 1, ptr %12, align 1, !tbaa !14
  %144 = load i8, ptr %12, align 1, !tbaa !14, !range !16, !noundef !17
  %145 = trunc i8 %144 to i1
  %146 = zext i1 %145 to i8
  store i8 %146, ptr %12, align 1, !tbaa !14
  br label %147

147:                                              ; preds = %143
  br label %148

148:                                              ; preds = %147
  br label %149

149:                                              ; preds = %148
  store i32 -1, ptr %9, align 4, !tbaa !12
  br label %211

150:                                              ; No predecessors!
  br label %151

151:                                              ; preds = %150
  br label %152

152:                                              ; preds = %151
  br label %153

153:                                              ; preds = %152
  br label %154

154:                                              ; preds = %153, %130
  %155 = load i64, ptr %3, align 8, !tbaa !3
  %156 = call i32 @H5CX_set_loc(i64 noundef %155)
  %157 = icmp slt i32 %156, 0
  br i1 %157, label %158, label %177

158:                                              ; preds = %154
  br label %159

159:                                              ; preds = %158
  br label %160

160:                                              ; preds = %159
  br label %161

161:                                              ; preds = %160
  %162 = load i64, ptr @H5E_FILE_g, align 8, !tbaa !3
  %163 = load i64, ptr @H5E_CANTSET_g, align 8, !tbaa !3
  %164 = call i32 (ptr, ptr, i32, i64, i64, ptr, ...) @H5E_printf_stack(ptr noundef @.str, ptr noundef @__func__.H5Fset_latest_format, i32 noundef 222, i64 noundef %162, i64 noundef %163, ptr noundef @.str.11)
  br label %165

165:                                              ; preds = %161
  br label %166

166:                                              ; preds = %165
  store i8 1, ptr %12, align 1, !tbaa !14
  %167 = load i8, ptr %12, align 1, !tbaa !14, !range !16, !noundef !17
  %168 = trunc i8 %167 to i1
  %169 = zext i1 %168 to i8
  store i8 %169, ptr %12, align 1, !tbaa !14
  br label %170

170:                                              ; preds = %166
  br label %171

171:                                              ; preds = %170
  br label %172

172:                                              ; preds = %171
  store i32 -1, ptr %9, align 4, !tbaa !12
  br label %211

173:                                              ; No predecessors!
  br label %174

174:                                              ; preds = %173
  br label %175

175:                                              ; preds = %174
  br label %176

176:                                              ; preds = %175
  br label %177

177:                                              ; preds = %176, %154
  %178 = load i8, ptr %4, align 1, !tbaa !14, !range !16, !noundef !17
  %179 = trunc i8 %178 to i1
  br i1 %179, label %181, label %180

180:                                              ; preds = %177
  store i32 0, ptr %8, align 4, !tbaa !12
  br label %181

181:                                              ; preds = %180, %177
  %182 = load i32, ptr %8, align 4, !tbaa !12
  %183 = getelementptr inbounds nuw %struct.H5VL_native_file_set_libver_bounds_t, ptr %7, i32 0, i32 0
  store i32 %182, ptr %183, align 8, !tbaa !18
  %184 = getelementptr inbounds nuw %struct.H5VL_native_file_set_libver_bounds_t, ptr %7, i32 0, i32 1
  store i32 5, ptr %184, align 4, !tbaa !18
  %185 = getelementptr inbounds nuw %struct.H5VL_optional_args_t, ptr %6, i32 0, i32 0
  store i32 23, ptr %185, align 8, !tbaa !19
  %186 = getelementptr inbounds nuw %struct.H5VL_optional_args_t, ptr %6, i32 0, i32 1
  store ptr %7, ptr %186, align 8, !tbaa !21
  %187 = load ptr, ptr %5, align 8, !tbaa !10
  %188 = load i64, ptr @H5P_LST_DATASET_XFER_ID_g, align 8, !tbaa !3
  %189 = call i32 @H5VL_file_optional(ptr noundef %187, ptr noundef %6, i64 noundef %188, ptr noundef null)
  %190 = icmp slt i32 %189, 0
  br i1 %190, label %191, label %210

191:                                              ; preds = %181
  br label %192

192:                                              ; preds = %191
  br label %193

193:                                              ; preds = %192
  br label %194

194:                                              ; preds = %193
  %195 = load i64, ptr @H5E_FILE_g, align 8, !tbaa !3
  %196 = load i64, ptr @H5E_CANTSET_g, align 8, !tbaa !3
  %197 = call i32 (ptr, ptr, i32, i64, i64, ptr, ...) @H5E_printf_stack(ptr noundef @.str, ptr noundef @__func__.H5Fset_latest_format, i32 noundef 238, i64 noundef %195, i64 noundef %196, ptr noundef @.str.12)
  br label %198

198:                                              ; preds = %194
  br label %199

199:                                              ; preds = %198
  store i8 1, ptr %12, align 1, !tbaa !14
  %200 = load i8, ptr %12, align 1, !tbaa !14, !range !16, !noundef !17
  %201 = trunc i8 %200 to i1
  %202 = zext i1 %201 to i8
  store i8 %202, ptr %12, align 1, !tbaa !14
  br label %203

203:                                              ; preds = %199
  br label %204

204:                                              ; preds = %203
  br label %205

205:                                              ; preds = %204
  store i32 -1, ptr %9, align 4, !tbaa !12
  br label %211

206:                                              ; No predecessors!
  br label %207

207:                                              ; preds = %206
  br label %208

208:                                              ; preds = %207
  br label %209

209:                                              ; preds = %208
  br label %210

210:                                              ; preds = %209, %181
  br label %211

211:                                              ; preds = %210, %205, %172, %149, %122, %90, %52
  %212 = load i8, ptr %11, align 1, !tbaa !14, !range !16, !noundef !17
  %213 = trunc i8 %212 to i1
  %214 = xor i1 %213, true
  %215 = xor i1 %214, true
  %216 = zext i1 %215 to i32
  %217 = sext i32 %216 to i64
  %218 = call i64 @llvm.expect.i64(i64 %217, i64 1)
  %219 = icmp ne i64 %218, 0
  br i1 %219, label %220, label %222

220:                                              ; preds = %211
  %221 = call i32 @H5CX_pop(i1 noundef zeroext true)
  store i8 0, ptr %11, align 1, !tbaa !14
  br label %222

222:                                              ; preds = %220, %211
  %223 = load i8, ptr %12, align 1, !tbaa !14, !range !16, !noundef !17
  %224 = trunc i8 %223 to i1
  %225 = xor i1 %224, true
  %226 = xor i1 %225, true
  %227 = zext i1 %226 to i32
  %228 = sext i32 %227 to i64
  %229 = call i64 @llvm.expect.i64(i64 %228, i64 0)
  %230 = icmp ne i64 %229, 0
  br i1 %230, label %231, label %233

231:                                              ; preds = %222
  %232 = call i32 @H5E_dump_api_stack()
  br label %233

233:                                              ; preds = %231, %222
  %234 = load i32, ptr %9, align 4, !tbaa !12
  call void @llvm.lifetime.end.p0(i64 1, ptr %12) #6
  call void @llvm.lifetime.end.p0(i64 1, ptr %11) #6
  call void @llvm.lifetime.end.p0(i64 480, ptr %10) #6
  call void @llvm.lifetime.end.p0(i64 4, ptr %9) #6
  call void @llvm.lifetime.end.p0(i64 4, ptr %8) #6
  call void @llvm.lifetime.end.p0(i64 40, ptr %7) #6
  call void @llvm.lifetime.end.p0(i64 16, ptr %6) #6
  call void @llvm.lifetime.end.p0(i64 8, ptr %5) #6
  ret i32 %234
}